#include <math.h>
#include <stdio.h>
#include <stdlib.h>
#include <string.h>

int main()
{
int a[1000],b[1000],i,j,k,n,q=0;
scanf("%d%d",&n,&k);
for(i=1;i<=n;i++)
scanf("%d",&a[i]);
for(i=1;i<=n;i++)
b[i]=a[i];
for(i=1;i<=n;i++)
{for(j=1;j<=n;j++)
if(a[i]+b[j]==k)
q++;}
if(q==0) printf("no");
else printf("yes");
}




